; Function Attrs: mustprogress nofree nounwind memory(write, argmem: readwrite) uwtable
define noundef float @_Z6rhodeviPfPA3_fS1_(i32 noundef %0, ptr nocapture noundef readonly %1, ptr nocapture noundef readonly %2, ptr nocapture noundef readonly %3) local_unnamed_addr #0 {
  %5 = icmp sgt i32 %0, 0
  br i1 %5, label %.lr.ph.i, label %_Z16calc_similar_indbiPKiPKfPA3_fS4_.exit

.lr.ph.i:                                         ; preds = %4
  %wide.trip.count114.i = zext nneg i32 %0 to i64
  br label %.split.us.us.us.i

.split.us.us.us.i:                                ; preds = %.split49.us.us.us.i, %.lr.ph.i
  %indvars.iv111.i = phi i64 [ %indvars.iv.next112.i, %.split49.us.us.us.i ], [ 0, %.lr.ph.i ]
  %.054.us.us.i = phi float [ %15, %.split49.us.us.us.i ], [ 0.000000e+00, %.lr.ph.i ]
  %.03753.us.us.i = phi float [ %18, %.split49.us.us.us.i ], [ 0.000000e+00, %.lr.ph.i ]
  %6 = getelementptr inbounds float, ptr %1, i64 %indvars.iv111.i
  %7 = load float, ptr %6, align 4
  br label %8

8:                                                ; preds = %8, %.split.us.us.us.i
  %indvars.iv107.i = phi i64 [ %indvars.iv.next108.i, %8 ], [ 0, %.split.us.us.us.i ]
  %.147.us.us.us.i = phi float [ %15, %8 ], [ %.054.us.us.i, %.split.us.us.us.i ]
  %.13846.us.us.us.i = phi float [ %18, %8 ], [ %.03753.us.us.i, %.split.us.us.us.i ]
  %9 = getelementptr inbounds [3 x float], ptr %2, i64 %indvars.iv111.i, i64 %indvars.iv107.i
  %10 = load float, ptr %9, align 4
  %11 = getelementptr inbounds [3 x float], ptr %3, i64 %indvars.iv111.i, i64 %indvars.iv107.i
  %12 = load float, ptr %11, align 4
  %13 = fsub float %10, %12
  %14 = fmul float %13, %13
  %15 = tail call float @llvm.fmuladd.f32(float %7, float %14, float %.147.us.us.us.i)
  %16 = fadd float %10, %12
  %17 = fmul float %16, %16
  %18 = tail call float @llvm.fmuladd.f32(float %7, float %17, float %.13846.us.us.us.i)
  %indvars.iv.next108.i = add nuw nsw i64 %indvars.iv107.i, 1
  %exitcond110.not.i = icmp eq i64 %indvars.iv.next108.i, 3
  br i1 %exitcond110.not.i, label %.split49.us.us.us.i, label %8, !llvm.loop !5

.split49.us.us.us.i:                              ; preds = %8
  %indvars.iv.next112.i = add nuw nsw i64 %indvars.iv111.i, 1
  %exitcond115.not.i = icmp eq i64 %indvars.iv.next112.i, %wide.trip.count114.i
  br i1 %exitcond115.not.i, label %_Z16calc_similar_indbiPKiPKfPA3_fS4_.exit.loopexit, label %.split.us.us.us.i, !llvm.loop !7

_Z16calc_similar_indbiPKiPKfPA3_fS4_.exit.loopexit: ; preds = %.split49.us.us.us.i
  %19 = fdiv float %15, %18
  br label %_Z16calc_similar_indbiPKiPKfPA3_fS4_.exit

_Z16calc_similar_indbiPKiPKfPA3_fS4_.exit:        ; preds = %_Z16calc_similar_indbiPKiPKfPA3_fS4_.exit.loopexit, %4
  %20 = phi float [ 0x7FF8000000000000, %4 ], [ %19, %_Z16calc_similar_indbiPKiPKfPA3_fS4_.exit.loopexit ]
  %21 = tail call noundef float @sqrtf(float noundef %20) #15
  %22 = fmul float %21, 2.000000e+00
  ret float %22
}